target datalayout = "e-m:e-p270:32:32-p271:32:32-p272:64:64-i64:64-i128:128-f80:128-n8:16:32:64-S128"
target triple = "x86_64-unknown-linux-gnu"

%"class.Imf_3_2::Attribute" = type { ptr }
%"class.Imf_3_2::TypedAttribute.2" = type { %"class.Imf_3_2::Attribute", %"class.Imath_3_2::Vec2.3" }
%"class.Imath_3_2::Vec2.3" = type { double, double }
%union.anon.12 = type { i64 }

; Function Attrs: mustprogress uwtable
define linkonce_odr hidden void @_ZN7Imf_3_28StreamIO10writeCharsERNS_7OStreamEPKci(ptr noundef nonnull align 8 dereferenceable(40) %os, ptr noundef %c, i32 noundef %n) #4 comdat align 2 {
entry:
  %os.addr = alloca ptr, align 8
  %c.addr = alloca ptr, align 8
  %n.addr = alloca i32, align 4
  store ptr %os, ptr %os.addr, align 8
  store ptr %c, ptr %c.addr, align 8
  store i32 %n, ptr %n.addr, align 4
  %0 = load ptr, ptr %os.addr, align 8
  %1 = load ptr, ptr %c.addr, align 8
  %2 = load i32, ptr %n.addr, align 4
  %vtable = load ptr, ptr %0, align 8
  %vfn = getelementptr inbounds ptr, ptr %vtable, i64 2
  %3 = load ptr, ptr %vfn, align 8
  call void %3(ptr noundef nonnull align 8 dereferenceable(40) %0, ptr noundef %1, i32 noundef %2)
  ret void
}

; Function Attrs: mustprogress uwtable
define linkonce_odr hidden void @_ZN7Imf_3_23Xdr18writeUnsignedCharsINS_8StreamIOENS_7OStreamEEEvRT0_PKhi(ptr noundef nonnull align 8 dereferenceable(40) %out, ptr noundef %c, i32 noundef %n) #4 comdat {
entry:
  %out.addr = alloca ptr, align 8
  %c.addr = alloca ptr, align 8
  %n.addr = alloca i32, align 4
  store ptr %out, ptr %out.addr, align 8
  store ptr %c, ptr %c.addr, align 8
  store i32 %n, ptr %n.addr, align 4
  %0 = load ptr, ptr %out.addr, align 8
  %1 = load ptr, ptr %c.addr, align 8
  %2 = load i32, ptr %n.addr, align 4
  call void @_ZN7Imf_3_28StreamIO10writeCharsERNS_7OStreamEPKci(ptr noundef nonnull align 8 dereferenceable(40) %0, ptr noundef %1, i32 noundef %2)
  ret void
}

; Function Attrs: mustprogress uwtable
define linkonce_odr hidden void @_ZN7Imf_3_23Xdr5writeINS_8StreamIOENS_7OStreamEEEvRT0_d(ptr noundef nonnull align 8 dereferenceable(40) %out, double noundef %v) #4 comdat {
entry:
  %out.addr = alloca ptr, align 8
  %v.addr = alloca double, align 8
  %u = alloca %union.anon.12, align 8
  %b = alloca [8 x i8], align 1
  store ptr %out, ptr %out.addr, align 8
  store double %v, ptr %v.addr, align 8
  %0 = load double, ptr %v.addr, align 8
  store double %0, ptr %u, align 8
  %1 = load i64, ptr %u, align 8
  %conv = trunc i64 %1 to i8
  %arrayidx = getelementptr inbounds [8 x i8], ptr %b, i64 0, i64 0
  store i8 %conv, ptr %arrayidx, align 1
  %2 = load i64, ptr %u, align 8
  %shr = lshr i64 %2, 8
  %conv1 = trunc i64 %shr to i8
  %arrayidx2 = getelementptr inbounds [8 x i8], ptr %b, i64 0, i64 1
  store i8 %conv1, ptr %arrayidx2, align 1
  %3 = load i64, ptr %u, align 8
  %shr3 = lshr i64 %3, 16
  %conv4 = trunc i64 %shr3 to i8
  %arrayidx5 = getelementptr inbounds [8 x i8], ptr %b, i64 0, i64 2
  store i8 %conv4, ptr %arrayidx5, align 1
  %4 = load i64, ptr %u, align 8
  %shr6 = lshr i64 %4, 24
  %conv7 = trunc i64 %shr6 to i8
  %arrayidx8 = getelementptr inbounds [8 x i8], ptr %b, i64 0, i64 3
  store i8 %conv7, ptr %arrayidx8, align 1
  %5 = load i64, ptr %u, align 8
  %shr9 = lshr i64 %5, 32
  %conv10 = trunc i64 %shr9 to i8
  %arrayidx11 = getelementptr inbounds [8 x i8], ptr %b, i64 0, i64 4
  store i8 %conv10, ptr %arrayidx11, align 1
  %6 = load i64, ptr %u, align 8
  %shr12 = lshr i64 %6, 40
  %conv13 = trunc i64 %shr12 to i8
  %arrayidx14 = getelementptr inbounds [8 x i8], ptr %b, i64 0, i64 5
  store i8 %conv13, ptr %arrayidx14, align 1
  %7 = load i64, ptr %u, align 8
  %shr15 = lshr i64 %7, 48
  %conv16 = trunc i64 %shr15 to i8
  %arrayidx17 = getelementptr inbounds [8 x i8], ptr %b, i64 0, i64 6
  store i8 %conv16, ptr %arrayidx17, align 1
  %8 = load i64, ptr %u, align 8
  %shr18 = lshr i64 %8, 56
  %conv19 = trunc i64 %shr18 to i8
  %arrayidx20 = getelementptr inbounds [8 x i8], ptr %b, i64 0, i64 7
  store i8 %conv19, ptr %arrayidx20, align 1
  %9 = load ptr, ptr %out.addr, align 8
  %arraydecay = getelementptr inbounds [8 x i8], ptr %b, i64 0, i64 0
  call void @_ZN7Imf_3_23Xdr18writeUnsignedCharsINS_8StreamIOENS_7OStreamEEEvRT0_PKhi(ptr noundef nonnull align 8 dereferenceable(40) %9, ptr noundef %arraydecay, i32 noundef 8)
  ret void
}

; Function Attrs: mustprogress uwtable
define void @_ZNK7Imf_3_214TypedAttributeIN9Imath_3_24Vec2IdEEE12writeValueToERNS_7OStreamEi(ptr noundef nonnull align 8 dereferenceable(24) %this, ptr noundef nonnull align 8 dereferenceable(40) %os, i32 noundef %version) unnamed_addr #4 align 2 {
entry:
  %this.addr = alloca ptr, align 8
  %os.addr = alloca ptr, align 8
  %version.addr = alloca i32, align 4
  store ptr %this, ptr %this.addr, align 8
  store ptr %os, ptr %os.addr, align 8
  store i32 %version, ptr %version.addr, align 4
  %this1 = load ptr, ptr %this.addr, align 8
  %0 = load ptr, ptr %os.addr, align 8
  %_value = getelementptr inbounds %"class.Imf_3_2::TypedAttribute.2", ptr %this1, i32 0, i32 1
  %x = getelementptr inbounds %"class.Imath_3_2::Vec2.3", ptr %_value, i32 0, i32 0
  %1 = load double, ptr %x, align 8
  call void @_ZN7Imf_3_23Xdr5writeINS_8StreamIOENS_7OStreamEEEvRT0_d(ptr noundef nonnull align 8 dereferenceable(40) %0, double noundef %1)
  %2 = load ptr, ptr %os.addr, align 8
  %_value2 = getelementptr inbounds %"class.Imf_3_2::TypedAttribute.2", ptr %this1, i32 0, i32 1
  %y = getelementptr inbounds %"class.Imath_3_2::Vec2.3", ptr %_value2, i32 0, i32 1
  %3 = load double, ptr %y, align 8
  call void @_ZN7Imf_3_23Xdr5writeINS_8StreamIOENS_7OStreamEEEvRT0_d(ptr noundef nonnull align 8 dereferenceable(40) %2, double noundef %3)
  ret void
}