; Function Attrs: mustprogress uwtable
define void @_ZNK7Imf_3_214TypedAttributeIN9Imath_3_24Vec2IdEEE12writeValueToERNS_7OStreamEi(ptr nocapture noundef nonnull readonly align 8 dereferenceable(24) %this, ptr noundef nonnull align 8 dereferenceable(40) %os, i32 %version) unnamed_addr #3 align 2 {
entry:
  %b.i2 = alloca [8 x i8], align 1
  %b.i = alloca [8 x i8], align 1
  %_value = getelementptr inbounds i8, ptr %this, i64 8
  %0 = load i64, ptr %_value, align 8
  call void @llvm.lifetime.start.p0(i64 8, ptr nonnull %b.i)
  %conv.i = trunc i64 %0 to i8
  store i8 %conv.i, ptr %b.i, align 1
  %shr.i = lshr i64 %0, 8
  %conv1.i = trunc i64 %shr.i to i8
  %arrayidx2.i = getelementptr inbounds i8, ptr %b.i, i64 1
  store i8 %conv1.i, ptr %arrayidx2.i, align 1
  %shr3.i = lshr i64 %0, 16
  %conv4.i = trunc i64 %shr3.i to i8
  %arrayidx5.i = getelementptr inbounds i8, ptr %b.i, i64 2
  store i8 %conv4.i, ptr %arrayidx5.i, align 1
  %shr6.i = lshr i64 %0, 24
  %conv7.i = trunc i64 %shr6.i to i8
  %arrayidx8.i = getelementptr inbounds i8, ptr %b.i, i64 3
  store i8 %conv7.i, ptr %arrayidx8.i, align 1
  %shr9.i = lshr i64 %0, 32
  %conv10.i = trunc i64 %shr9.i to i8
  %arrayidx11.i = getelementptr inbounds i8, ptr %b.i, i64 4
  store i8 %conv10.i, ptr %arrayidx11.i, align 1
  %shr12.i = lshr i64 %0, 40
  %conv13.i = trunc i64 %shr12.i to i8
  %arrayidx14.i = getelementptr inbounds i8, ptr %b.i, i64 5
  store i8 %conv13.i, ptr %arrayidx14.i, align 1
  %shr15.i = lshr i64 %0, 48
  %conv16.i = trunc i64 %shr15.i to i8
  %arrayidx17.i = getelementptr inbounds i8, ptr %b.i, i64 6
  store i8 %conv16.i, ptr %arrayidx17.i, align 1
  %shr18.i = lshr i64 %0, 56
  %conv19.i = trunc i64 %shr18.i to i8
  %arrayidx20.i = getelementptr inbounds i8, ptr %b.i, i64 7
  store i8 %conv19.i, ptr %arrayidx20.i, align 1
  %vtable.i.i.i = load ptr, ptr %os, align 8
  %vfn.i.i.i = getelementptr inbounds i8, ptr %vtable.i.i.i, i64 16
  %1 = load ptr, ptr %vfn.i.i.i, align 8
  call void %1(ptr noundef nonnull align 8 dereferenceable(40) %os, ptr noundef nonnull %b.i, i32 noundef 8)
  call void @llvm.lifetime.end.p0(i64 8, ptr nonnull %b.i)
  %y = getelementptr inbounds i8, ptr %this, i64 16
  %2 = load i64, ptr %y, align 8
  call void @llvm.lifetime.start.p0(i64 8, ptr nonnull %b.i2)
  %conv.i3 = trunc i64 %2 to i8
  store i8 %conv.i3, ptr %b.i2, align 1
  %shr.i4 = lshr i64 %2, 8
  %conv1.i5 = trunc i64 %shr.i4 to i8
  %arrayidx2.i6 = getelementptr inbounds i8, ptr %b.i2, i64 1
  store i8 %conv1.i5, ptr %arrayidx2.i6, align 1
  %shr3.i7 = lshr i64 %2, 16
  %conv4.i8 = trunc i64 %shr3.i7 to i8
  %arrayidx5.i9 = getelementptr inbounds i8, ptr %b.i2, i64 2
  store i8 %conv4.i8, ptr %arrayidx5.i9, align 1
  %shr6.i10 = lshr i64 %2, 24
  %conv7.i11 = trunc i64 %shr6.i10 to i8
  %arrayidx8.i12 = getelementptr inbounds i8, ptr %b.i2, i64 3
  store i8 %conv7.i11, ptr %arrayidx8.i12, align 1
  %shr9.i13 = lshr i64 %2, 32
  %conv10.i14 = trunc i64 %shr9.i13 to i8
  %arrayidx11.i15 = getelementptr inbounds i8, ptr %b.i2, i64 4
  store i8 %conv10.i14, ptr %arrayidx11.i15, align 1
  %shr12.i16 = lshr i64 %2, 40
  %conv13.i17 = trunc i64 %shr12.i16 to i8
  %arrayidx14.i18 = getelementptr inbounds i8, ptr %b.i2, i64 5
  store i8 %conv13.i17, ptr %arrayidx14.i18, align 1
  %shr15.i19 = lshr i64 %2, 48
  %conv16.i20 = trunc i64 %shr15.i19 to i8
  %arrayidx17.i21 = getelementptr inbounds i8, ptr %b.i2, i64 6
  store i8 %conv16.i20, ptr %arrayidx17.i21, align 1
  %shr18.i22 = lshr i64 %2, 56
  %conv19.i23 = trunc i64 %shr18.i22 to i8
  %arrayidx20.i24 = getelementptr inbounds i8, ptr %b.i2, i64 7
  store i8 %conv19.i23, ptr %arrayidx20.i24, align 1
  %vtable.i.i.i25 = load ptr, ptr %os, align 8
  %vfn.i.i.i26 = getelementptr inbounds i8, ptr %vtable.i.i.i25, i64 16
  %3 = load ptr, ptr %vfn.i.i.i26, align 8
  call void %3(ptr noundef nonnull align 8 dereferenceable(40) %os, ptr noundef nonnull %b.i2, i32 noundef 8)
  call void @llvm.lifetime.end.p0(i64 8, ptr nonnull %b.i2)
  ret void
}